target datalayout = "e-m:e-p270:32:32-p271:32:32-p272:64:64-i64:64-i128:128-f80:128-n8:16:32:64-S128"
target triple = "x86_64-pc-linux-gnu"

@libctx = internal global ptr null, align 8
@.str.24 = private unnamed_addr constant [34 x i8] c"../openssl/test/evp_libctx_test.c\00", align 1
@.str.59 = private unnamed_addr constant [50 x i8] c"bio = BIO_new_mem_buf(dhx_cert, sizeof(dhx_cert))\00", align 1
@.str.60 = private unnamed_addr constant [33 x i8] c"cert = X509_new_ex(libctx, NULL)\00", align 1
@.str.61 = private unnamed_addr constant [25 x i8] c"d2i_X509_bio(bio, &cert)\00", align 1

; Function Attrs: nounwind uwtable
define internal i32 @dhx_cert_load() #0 {
  %1 = alloca i32, align 4
  %2 = alloca ptr, align 8
  %3 = alloca ptr, align 8
  call void @llvm.lifetime.start.p0(i64 4, ptr %1) #7
  store i32 0, ptr %1, align 4, !tbaa !9
  call void @llvm.lifetime.start.p0(i64 8, ptr %2) #7
  store ptr null, ptr %2, align 8, !tbaa !27
  call void @llvm.lifetime.start.p0(i64 8, ptr %3) #7
  store ptr null, ptr %3, align 8, !tbaa !29
  %4 = call ptr @BIO_new_mem_buf(ptr noundef @dhx_cert_load.dhx_cert, i32 noundef 1027)
  store ptr %4, ptr %3, align 8, !tbaa !29
  %5 = call i32 @test_ptr(ptr noundef @.str.24, i32 noundef 333, ptr noundef @.str.59, ptr noundef %4)
  %6 = icmp ne i32 %5, 0
  br i1 %6, label %7, label %17

7:                                                ; preds = %0
  %8 = load ptr, ptr @libctx, align 8, !tbaa !13
  %9 = call ptr @X509_new_ex(ptr noundef %8, ptr noundef null)
  store ptr %9, ptr %2, align 8, !tbaa !27
  %10 = call i32 @test_ptr(ptr noundef @.str.24, i32 noundef 334, ptr noundef @.str.60, ptr noundef %9)
  %11 = icmp ne i32 %10, 0
  br i1 %11, label %12, label %17

12:                                               ; preds = %7
  %13 = load ptr, ptr %3, align 8, !tbaa !29
  %14 = call ptr @d2i_X509_bio(ptr noundef %13, ptr noundef %2)
  %15 = call i32 @test_ptr(ptr noundef @.str.24, i32 noundef 335, ptr noundef @.str.61, ptr noundef %14)
  %16 = icmp ne i32 %15, 0
  br i1 %16, label %18, label %17

17:                                               ; preds = %12, %7, %0
  br label %19

18:                                               ; preds = %12
  store i32 1, ptr %1, align 4, !tbaa !9
  br label %19

19:                                               ; preds = %18, %17
  %20 = load ptr, ptr %2, align 8, !tbaa !27
  call void @X509_free(ptr noundef %20)
  %21 = load ptr, ptr %3, align 8, !tbaa !29
  %22 = call i32 @BIO_free(ptr noundef %21)
  %23 = load i32, ptr %1, align 4, !tbaa !9
  call void @llvm.lifetime.end.p0(i64 8, ptr %3) #7
  call void @llvm.lifetime.end.p0(i64 8, ptr %2) #7
  call void @llvm.lifetime.end.p0(i64 4, ptr %1) #7
  ret i32 %23
}