; Function Attrs: nounwind uwtable
define internal range(i32 0, 2) i32 @dhx_cert_load() #1 {
  %1 = alloca ptr, align 8
  call void @llvm.lifetime.start.p0(i64 8, ptr nonnull %1) #7
  store ptr null, ptr %1, align 8, !tbaa !19
  %2 = tail call ptr @BIO_new_mem_buf(ptr noundef nonnull @dhx_cert_load.dhx_cert, i32 noundef 1027) #7
  %3 = tail call i32 @test_ptr(ptr noundef nonnull @.str.24, i32 noundef 333, ptr noundef nonnull @.str.59, ptr noundef %2) #7
  %.not = icmp eq i32 %3, 0
  br i1 %.not, label %11, label %4

4:                                                ; preds = %0
  %5 = load ptr, ptr @libctx, align 8, !tbaa !6
  %6 = tail call ptr @X509_new_ex(ptr noundef %5, ptr noundef null) #7
  store ptr %6, ptr %1, align 8, !tbaa !19
  %7 = tail call i32 @test_ptr(ptr noundef nonnull @.str.24, i32 noundef 334, ptr noundef nonnull @.str.60, ptr noundef %6) #7
  %.not2 = icmp eq i32 %7, 0
  br i1 %.not2, label %11, label %8

8:                                                ; preds = %4
  %9 = call ptr @d2i_X509_bio(ptr noundef %2, ptr noundef nonnull %1) #7
  %10 = call i32 @test_ptr(ptr noundef nonnull @.str.24, i32 noundef 335, ptr noundef nonnull @.str.61, ptr noundef %9) #7
  %.not3 = icmp ne i32 %10, 0
  %spec.select = zext i1 %.not3 to i32
  %.pre = load ptr, ptr %1, align 8, !tbaa !19
  br label %11

11:                                               ; preds = %8, %0, %4
  %12 = phi ptr [ %6, %4 ], [ null, %0 ], [ %.pre, %8 ]
  %.0 = phi i32 [ 0, %4 ], [ 0, %0 ], [ %spec.select, %8 ]
  call void @X509_free(ptr noundef %12) #7
  %13 = call i32 @BIO_free(ptr noundef %2) #7
  call void @llvm.lifetime.end.p0(i64 8, ptr nonnull %1) #7
  ret i32 %.0
}